target datalayout = "e-m:e-p270:32:32-p271:32:32-p272:64:64-i64:64-i128:128-f80:128-n8:16:32:64-S128"
target triple = "x86_64-unknown-linux-gnu"

; Function Attrs: mustprogress uwtable
define hidden void @_ZN3nla6basics19basic_lemma_for_monERKNS_5monicEb(ptr noundef nonnull align 8 dereferenceable(184) %this, ptr noundef nonnull align 8 dereferenceable(34) %rm, i1 noundef zeroext %derived) #5 align 2 {
entry:
  %this.addr = alloca ptr, align 8
  %rm.addr = alloca ptr, align 8
  %derived.addr = alloca i8, align 1
  store ptr %this, ptr %this.addr, align 8
  store ptr %rm, ptr %rm.addr, align 8
  %frombool = zext i1 %derived to i8
  store i8 %frombool, ptr %derived.addr, align 1
  %this1 = load ptr, ptr %this.addr, align 8
  %0 = load i8, ptr %derived.addr, align 1
  %tobool = trunc i8 %0 to i1
  br i1 %tobool, label %if.then, label %if.else

if.then:                                          ; preds = %entry
  %1 = load ptr, ptr %rm.addr, align 8
  %call = call noundef zeroext i1 @_ZN3nla6basics27basic_lemma_for_mon_derivedERKNS_5monicE(ptr noundef nonnull align 8 dereferenceable(184) %this1, ptr noundef nonnull align 8 dereferenceable(34) %1)
  br label %if.end

if.else:                                          ; preds = %entry
  %2 = load ptr, ptr %rm.addr, align 8
  call void @_ZN3nla6basics31basic_lemma_for_mon_model_basedERKNS_5monicE(ptr noundef nonnull align 8 dereferenceable(184) %this1, ptr noundef nonnull align 8 dereferenceable(34) %2)
  br label %if.end

if.end:                                           ; preds = %if.else, %if.then
  ret void
}