; Function Attrs: mustprogress uwtable
define hidden void @_ZN3nla6basics19basic_lemma_for_monERKNS_5monicEb(ptr noundef nonnull align 8 dereferenceable(184) %this, ptr noundef nonnull align 8 dereferenceable(34) %rm, i1 noundef zeroext %derived) local_unnamed_addr #3 align 2 {
entry:
  br i1 %derived, label %if.then, label %if.else

if.then:                                          ; preds = %entry
  %call = tail call noundef zeroext i1 @_ZN3nla6basics27basic_lemma_for_mon_derivedERKNS_5monicE(ptr noundef nonnull align 8 dereferenceable(184) %this, ptr noundef nonnull align 8 dereferenceable(34) %rm)
  br label %if.end

if.else:                                          ; preds = %entry
  tail call void @_ZN3nla6basics31basic_lemma_for_mon_model_basedERKNS_5monicE(ptr noundef nonnull align 8 dereferenceable(184) %this, ptr noundef nonnull align 8 dereferenceable(34) %rm)
  br label %if.end

if.end:                                           ; preds = %if.else, %if.then
  ret void
}